; Function Attrs: nounwind sspstrong uwtable
define hidden void @rb_vm_unlock_body() local_unnamed_addr #2 {
  %1 = load ptr, ptr @ruby_current_vm_ptr, align 8, !tbaa !7
  %2 = getelementptr inbounds nuw i8, ptr %1, i64 96
  %3 = load i32, ptr %2, align 8, !tbaa !61
  %4 = add i32 %3, -1
  store i32 %4, ptr %2, align 4, !tbaa !62
  %5 = icmp eq i32 %4, 0
  br i1 %5, label %6, label %vm_lock_leave.exit

6:                                                ; preds = %0
  %7 = getelementptr inbounds nuw i8, ptr %1, i64 48
  %8 = getelementptr inbounds nuw i8, ptr %1, i64 88
  store ptr null, ptr %8, align 8, !tbaa !12
  tail call void @rb_native_mutex_unlock(ptr noundef nonnull %7) #7
  br label %vm_lock_leave.exit

vm_lock_leave.exit:                               ; preds = %0, %6
  ret void
}